; Function Attrs: mustprogress nofree norecurse nosync nounwind willreturn memory(read, inaccessiblemem: none) uwtable
define dso_local range(i64 0, 8589934592) i64 @_ZNK4llvm3EVT29getExtendedVectorElementCountEv(ptr nocapture noundef nonnull readonly align 8 dereferenceable(16) %0) local_unnamed_addr #3 align 2 {
  %2 = getelementptr inbounds nuw i8, ptr %0, i64 8
  %3 = load ptr, ptr %2, align 8
  %4 = getelementptr inbounds nuw i8, ptr %3, i64 32
  %5 = load i32, ptr %4, align 8
  %6 = getelementptr inbounds nuw i8, ptr %3, i64 8
  %7 = load i32, ptr %6, align 8
  %8 = and i32 %7, 255
  %9 = icmp eq i32 %8, 18
  %.sroa.2.0.insert.shift.i.i = select i1 %9, i64 4294967296, i64 0
  %.sroa.0.0.insert.ext.i.i = zext i32 %5 to i64
  %.sroa.0.0.insert.insert.i.i = or disjoint i64 %.sroa.2.0.insert.shift.i.i, %.sroa.0.0.insert.ext.i.i
  ret i64 %.sroa.0.0.insert.insert.i.i
}